target datalayout = "e-m:e-p270:32:32-p271:32:32-p272:64:64-i64:64-i128:128-f80:128-n8:16:32:64-S128"
target triple = "x86_64-pc-linux-gnu"

%struct.procfs_entry_s = type { ptr, ptr, i8 }
%struct.procfs_operations = type { ptr, ptr, ptr, ptr, ptr, ptr, ptr, ptr, ptr, ptr, ptr }
%struct.stat = type { i32, i16, i32, i16, i32, i32, i32, i32, %struct.timespec, %struct.timespec, %struct.timespec, i16, i32 }
%struct.timespec = type { i64, i64 }

; Function Attrs: nounwind uwtable
define internal i32 @procfs_stat(ptr noundef %0, ptr noundef %1, ptr noundef %2) #0 {
  %4 = alloca i32, align 4
  %5 = alloca ptr, align 8
  %6 = alloca ptr, align 8
  %7 = alloca ptr, align 8
  %8 = alloca i32, align 4
  %9 = alloca i32, align 4
  %10 = alloca i32, align 4
  store ptr %0, ptr %5, align 8
  store ptr %1, ptr %6, align 8
  store ptr %2, ptr %7, align 8
  store i32 -2, ptr %8, align 4
  %11 = load ptr, ptr %7, align 8
  call void @llvm.memset.p0.i64(ptr align 8 %11, i8 0, i64 88, i1 false)
  %12 = load ptr, ptr %6, align 8
  %13 = icmp ne ptr %12, null
  br i1 %13, label %14, label %20

14:                                               ; preds = %3
  %15 = load ptr, ptr %6, align 8
  %16 = getelementptr inbounds i8, ptr %15, i64 0
  %17 = load i8, ptr %16, align 1
  %18 = sext i8 %17 to i32
  %19 = icmp eq i32 %18, 0
  br i1 %19, label %20, label %23

20:                                               ; preds = %14, %3
  %21 = load ptr, ptr %7, align 8
  %22 = getelementptr inbounds %struct.stat, ptr %21, i32 0, i32 2
  store i32 16676, ptr %22, align 8
  store i32 0, ptr %8, align 4
  br label %70

23:                                               ; preds = %14
  %24 = load ptr, ptr %6, align 8
  %25 = call i64 @strlen(ptr noundef %24) #6
  %26 = trunc i64 %25 to i32
  store i32 %26, ptr %10, align 4
  store i32 0, ptr %9, align 4
  br label %27

27:                                               ; preds = %66, %23
  %28 = load i32, ptr %9, align 4
  %29 = icmp slt i32 %28, 13
  br i1 %29, label %30, label %69

30:                                               ; preds = %27
  %31 = load i32, ptr %9, align 4
  %32 = sext i32 %31 to i64
  %33 = getelementptr inbounds [13 x %struct.procfs_entry_s], ptr @g_procfs_entries, i64 0, i64 %32
  %34 = getelementptr inbounds %struct.procfs_entry_s, ptr %33, i32 0, i32 0
  %35 = load ptr, ptr %34, align 8
  %36 = load ptr, ptr %6, align 8
  %37 = call i32 @fnmatch(ptr noundef %35, ptr noundef %36, i32 noundef 0)
  %38 = icmp eq i32 %37, 0
  br i1 %38, label %39, label %50

39:                                               ; preds = %30
  %40 = load i32, ptr %9, align 4
  %41 = sext i32 %40 to i64
  %42 = getelementptr inbounds [13 x %struct.procfs_entry_s], ptr @g_procfs_entries, i64 0, i64 %41
  %43 = getelementptr inbounds %struct.procfs_entry_s, ptr %42, i32 0, i32 1
  %44 = load ptr, ptr %43, align 8
  %45 = getelementptr inbounds %struct.procfs_operations, ptr %44, i32 0, i32 10
  %46 = load ptr, ptr %45, align 8
  %47 = load ptr, ptr %6, align 8
  %48 = load ptr, ptr %7, align 8
  %49 = call i32 %46(ptr noundef %47, ptr noundef %48)
  store i32 %49, ptr %4, align 4
  br label %72

50:                                               ; preds = %30
  %51 = load i32, ptr %9, align 4
  %52 = sext i32 %51 to i64
  %53 = getelementptr inbounds [13 x %struct.procfs_entry_s], ptr @g_procfs_entries, i64 0, i64 %52
  %54 = getelementptr inbounds %struct.procfs_entry_s, ptr %53, i32 0, i32 0
  %55 = load ptr, ptr %54, align 8
  %56 = load ptr, ptr %6, align 8
  %57 = load i32, ptr %10, align 4
  %58 = sext i32 %57 to i64
  %59 = call i32 @strncmp(ptr noundef %55, ptr noundef %56, i64 noundef %58) #6
  %60 = icmp eq i32 %59, 0
  br i1 %60, label %61, label %64

61:                                               ; preds = %50
  %62 = load ptr, ptr %7, align 8
  %63 = getelementptr inbounds %struct.stat, ptr %62, i32 0, i32 2
  store i32 16676, ptr %63, align 8
  store i32 0, ptr %8, align 4
  br label %69

64:                                               ; preds = %50
  br label %65

65:                                               ; preds = %64
  br label %66

66:                                               ; preds = %65
  %67 = load i32, ptr %9, align 4
  %68 = add nsw i32 %67, 1
  store i32 %68, ptr %9, align 4
  br label %27, !llvm.loop !12

69:                                               ; preds = %61, %27
  br label %70

70:                                               ; preds = %69, %20
  %71 = load i32, ptr %8, align 4
  store i32 %71, ptr %4, align 4
  br label %72

72:                                               ; preds = %70, %39
  %73 = load i32, ptr %4, align 4
  ret i32 %73
}