; Function Attrs: nounwind uwtable
define internal i32 @procfs_stat(ptr readnone captures(none) %0, ptr noundef %1, ptr noundef initializes((0, 88)) %2) #0 {
  tail call void @llvm.memset.p0.i64(ptr noundef nonnull align 8 dereferenceable(88) %2, i8 0, i64 88, i1 false)
  %.not = icmp eq ptr %1, null
  br i1 %.not, label %7, label %4

4:                                                ; preds = %3
  %5 = load i8, ptr %1, align 1
  %6 = icmp eq i8 %5, 0
  br i1 %6, label %7, label %9

7:                                                ; preds = %4, %3
  %8 = getelementptr inbounds nuw i8, ptr %2, i64 8
  store i32 16676, ptr %8, align 8
  br label %.loopexit

9:                                                ; preds = %4
  %10 = tail call i64 @strlen(ptr noundef nonnull dereferenceable(1) %1) #12
  %sext = shl i64 %10, 32
  %11 = ashr exact i64 %sext, 32
  br label %13

12:                                               ; preds = %24
  %indvars.iv.next = add nuw nsw i64 %indvars.iv, 1
  %exitcond.not = icmp eq i64 %indvars.iv.next, 13
  br i1 %exitcond.not, label %.loopexit, label %13, !llvm.loop !14

13:                                               ; preds = %9, %12
  %indvars.iv = phi i64 [ 0, %9 ], [ %indvars.iv.next, %12 ]
  %14 = getelementptr inbounds nuw [13 x %struct.procfs_entry_s], ptr @g_procfs_entries, i64 0, i64 %indvars.iv
  %15 = load ptr, ptr %14, align 8
  %16 = tail call i32 @fnmatch(ptr noundef %15, ptr noundef nonnull %1, i32 noundef 0) #12
  %17 = icmp eq i32 %16, 0
  br i1 %17, label %18, label %24

18:                                               ; preds = %13
  %19 = getelementptr inbounds nuw i8, ptr %14, i64 8
  %20 = load ptr, ptr %19, align 8
  %21 = getelementptr inbounds nuw i8, ptr %20, i64 80
  %22 = load ptr, ptr %21, align 8
  %23 = tail call i32 %22(ptr noundef nonnull %1, ptr noundef nonnull %2) #12
  br label %.loopexit

24:                                               ; preds = %13
  %25 = tail call i32 @strncmp(ptr noundef %15, ptr noundef nonnull %1, i64 noundef %11) #12
  %26 = icmp eq i32 %25, 0
  br i1 %26, label %27, label %12

27:                                               ; preds = %24
  %28 = getelementptr inbounds nuw i8, ptr %2, i64 8
  store i32 16676, ptr %28, align 8
  br label %.loopexit

.loopexit:                                        ; preds = %12, %7, %27, %18
  %.0 = phi i32 [ %23, %18 ], [ 0, %7 ], [ 0, %27 ], [ -2, %12 ]
  ret i32 %.0
}